; Function Attrs: nounwind uwtable
define internal range(i32 -2147483648, 2) i32 @celt_header(ptr noundef %0, i32 noundef %1) #0 {
  %3 = getelementptr inbounds nuw i8, ptr %0, i64 24
  %4 = load ptr, ptr %3, align 8, !tbaa !4
  %5 = load ptr, ptr %4, align 8, !tbaa !24
  %6 = sext i32 %1 to i64
  %7 = getelementptr inbounds %struct.ogg_stream, ptr %5, i64 %6
  %8 = getelementptr inbounds nuw i8, ptr %0, i64 48
  %9 = load ptr, ptr %8, align 8, !tbaa !28
  %10 = getelementptr inbounds ptr, ptr %9, i64 %6
  %11 = load ptr, ptr %10, align 8, !tbaa !29
  %12 = getelementptr inbounds nuw i8, ptr %7, i64 424
  %13 = load ptr, ptr %12, align 8, !tbaa !31
  %14 = load ptr, ptr %7, align 8, !tbaa !34
  %15 = getelementptr inbounds nuw i8, ptr %7, i64 16
  %16 = load i32, ptr %15, align 8, !tbaa !35
  %17 = zext i32 %16 to i64
  %18 = getelementptr inbounds nuw i8, ptr %14, i64 %17
  %19 = getelementptr inbounds nuw i8, ptr %7, i64 20
  %20 = load i32, ptr %19, align 4, !tbaa !36
  %21 = icmp eq i32 %20, 60
  br i1 %21, label %22, label %60

22:                                               ; preds = %2
  %bcmp = tail call i32 @bcmp(ptr noundef nonnull dereferenceable(8) %18, ptr noundef nonnull dereferenceable(8) @.str, i64 8)
  %.not = icmp eq i32 %bcmp, 0
  br i1 %.not, label %23, label %60

23:                                               ; preds = %22
  %24 = tail call noalias ptr @av_malloc(i64 noundef 4) #3
  %.not52 = icmp eq ptr %24, null
  br i1 %.not52, label %67, label %25

25:                                               ; preds = %23
  %26 = getelementptr inbounds nuw i8, ptr %11, i64 16
  %27 = load ptr, ptr %26, align 8, !tbaa !37
  %28 = tail call i32 @ff_alloc_extradata(ptr noundef %27, i32 noundef 8) #3
  %29 = icmp slt i32 %28, 0
  br i1 %29, label %30, label %31

30:                                               ; preds = %25
  tail call void @av_free(ptr noundef nonnull %24) #3
  br label %67

31:                                               ; preds = %25
  %32 = getelementptr inbounds nuw i8, ptr %18, i64 28
  %33 = load i32, ptr %32, align 1, !tbaa !44
  %34 = getelementptr inbounds nuw i8, ptr %18, i64 36
  %35 = load i32, ptr %34, align 1, !tbaa !44
  %36 = getelementptr inbounds nuw i8, ptr %18, i64 40
  %37 = load i32, ptr %36, align 1, !tbaa !44
  %38 = getelementptr inbounds nuw i8, ptr %18, i64 48
  %39 = load i32, ptr %38, align 1, !tbaa !44
  %40 = getelementptr inbounds nuw i8, ptr %18, i64 56
  %41 = load i32, ptr %40, align 1, !tbaa !44
  %42 = load ptr, ptr %26, align 8, !tbaa !37
  store i32 1, ptr %42, align 8, !tbaa !45
  %43 = getelementptr inbounds nuw i8, ptr %42, i64 4
  store i32 86067, ptr %43, align 4, !tbaa !48
  %44 = getelementptr inbounds nuw i8, ptr %42, i64 152
  store i32 %35, ptr %44, align 8, !tbaa !49
  %45 = getelementptr inbounds nuw i8, ptr %42, i64 132
  store i32 %37, ptr %45, align 4, !tbaa !50
  %.not53 = icmp eq i32 %35, 0
  br i1 %.not53, label %47, label %46

46:                                               ; preds = %31
  tail call void @avpriv_set_pts_info(ptr noundef nonnull %11, i32 noundef 64, i32 noundef 1, i32 noundef %35) #3
  br label %47

47:                                               ; preds = %46, %31
  %48 = load ptr, ptr %12, align 8, !tbaa !31
  %.not54 = icmp eq ptr %48, null
  br i1 %.not54, label %51, label %49

49:                                               ; preds = %47
  tail call void @av_free(ptr noundef nonnull %24) #3
  %50 = load ptr, ptr %12, align 8, !tbaa !31
  br label %51

51:                                               ; preds = %49, %47
  %.047 = phi ptr [ %50, %49 ], [ %24, %47 ]
  store ptr %.047, ptr %12, align 8, !tbaa !31
  %52 = add i32 %41, 1
  store i32 %52, ptr %.047, align 4, !tbaa !51
  %53 = load ptr, ptr %26, align 8, !tbaa !37
  %54 = getelementptr inbounds nuw i8, ptr %53, i64 16
  %55 = load ptr, ptr %54, align 8, !tbaa !53
  store i32 %39, ptr %55, align 1, !tbaa !44
  %56 = load ptr, ptr %26, align 8, !tbaa !37
  %57 = getelementptr inbounds nuw i8, ptr %56, i64 16
  %58 = load ptr, ptr %57, align 8, !tbaa !53
  %59 = getelementptr inbounds nuw i8, ptr %58, i64 4
  store i32 %33, ptr %59, align 1, !tbaa !44
  br label %67

60:                                               ; preds = %22, %2
  %.not55 = icmp eq ptr %13, null
  br i1 %.not55, label %67, label %61

61:                                               ; preds = %60
  %62 = load i32, ptr %13, align 4, !tbaa !51
  %.not56 = icmp eq i32 %62, 0
  br i1 %.not56, label %67, label %63

63:                                               ; preds = %61
  %64 = tail call i32 @ff_vorbis_stream_comment(ptr noundef nonnull %0, ptr noundef %11, ptr noundef %18, i32 noundef %20) #3
  %65 = load i32, ptr %13, align 4, !tbaa !51
  %66 = add nsw i32 %65, -1
  store i32 %66, ptr %13, align 4, !tbaa !51
  br label %67

67:                                               ; preds = %60, %61, %30, %51, %23, %63
  %.1 = phi i32 [ 1, %63 ], [ %28, %30 ], [ 1, %51 ], [ -12, %23 ], [ 0, %61 ], [ 0, %60 ]
  ret i32 %.1
}